target datalayout = "e-m:e-p270:32:32-p271:32:32-p272:64:64-i64:64-i128:128-f80:128-n8:16:32:64-S128"
target triple = "x86_64-pc-linux-gnu"

%struct.luaL_Stream = type { ptr, ptr }

@.str.16 = private unnamed_addr constant [6 x i8] c"FILE*\00", align 1
@.str.19 = private unnamed_addr constant [2 x i8] c"r\00", align 1
@.str.31 = private unnamed_addr constant [13 x i8] c"invalid mode\00", align 1

; Function Attrs: nounwind uwtable
define internal ptr @newprefile(ptr noundef %0) #0 {
  %2 = alloca ptr, align 8
  %3 = alloca ptr, align 8
  store ptr %0, ptr %2, align 8, !tbaa !4
  call void @llvm.lifetime.start.p0(i64 8, ptr %3) #8
  %4 = load ptr, ptr %2, align 8, !tbaa !4
  %5 = call ptr @lua_newuserdatauv(ptr noundef %4, i64 noundef 16, i32 noundef 0)
  store ptr %5, ptr %3, align 8, !tbaa !13
  %6 = load ptr, ptr %3, align 8, !tbaa !13
  %7 = getelementptr inbounds nuw %struct.luaL_Stream, ptr %6, i32 0, i32 1
  store ptr null, ptr %7, align 8, !tbaa !17
  %8 = load ptr, ptr %2, align 8, !tbaa !4
  call void @luaL_setmetatable(ptr noundef %8, ptr noundef @.str.16)
  %9 = load ptr, ptr %3, align 8, !tbaa !13
  call void @llvm.lifetime.end.p0(i64 8, ptr %3) #8
  ret ptr %9
}

; Function Attrs: nounwind uwtable
define internal i32 @io_popen(ptr noundef %0) #0 {
  %2 = alloca ptr, align 8
  %3 = alloca ptr, align 8
  %4 = alloca ptr, align 8
  %5 = alloca ptr, align 8
  store ptr %0, ptr %2, align 8, !tbaa !4
  call void @llvm.lifetime.start.p0(i64 8, ptr %3) #8
  %6 = load ptr, ptr %2, align 8, !tbaa !4
  %7 = call ptr @luaL_checklstring(ptr noundef %6, i32 noundef 1, ptr noundef null)
  store ptr %7, ptr %3, align 8, !tbaa !11
  call void @llvm.lifetime.start.p0(i64 8, ptr %4) #8
  %8 = load ptr, ptr %2, align 8, !tbaa !4
  %9 = call ptr @luaL_optlstring(ptr noundef %8, i32 noundef 2, ptr noundef @.str.19, ptr noundef null)
  store ptr %9, ptr %4, align 8, !tbaa !11
  call void @llvm.lifetime.start.p0(i64 8, ptr %5) #8
  %10 = load ptr, ptr %2, align 8, !tbaa !4
  %11 = call ptr @newprefile(ptr noundef %10)
  store ptr %11, ptr %5, align 8, !tbaa !13
  %12 = load ptr, ptr %4, align 8, !tbaa !11
  %13 = getelementptr inbounds i8, ptr %12, i64 0
  %14 = load i8, ptr %13, align 1, !tbaa !20
  %15 = sext i8 %14 to i32
  %16 = icmp eq i32 %15, 114
  br i1 %16, label %23, label %17

17:                                               ; preds = %1
  %18 = load ptr, ptr %4, align 8, !tbaa !11
  %19 = getelementptr inbounds i8, ptr %18, i64 0
  %20 = load i8, ptr %19, align 1, !tbaa !20
  %21 = sext i8 %20 to i32
  %22 = icmp eq i32 %21, 119
  br i1 %22, label %23, label %29

23:                                               ; preds = %17, %1
  %24 = load ptr, ptr %4, align 8, !tbaa !11
  %25 = getelementptr inbounds i8, ptr %24, i64 1
  %26 = load i8, ptr %25, align 1, !tbaa !20
  %27 = sext i8 %26 to i32
  %28 = icmp eq i32 %27, 0
  br label %29

29:                                               ; preds = %23, %17
  %30 = phi i1 [ false, %17 ], [ %28, %23 ]
  %31 = zext i1 %30 to i32
  %32 = icmp ne i32 %31, 0
  %33 = zext i1 %32 to i32
  %34 = sext i32 %33 to i64
  %35 = call i64 @llvm.expect.i64(i64 %34, i64 1)
  %36 = icmp ne i64 %35, 0
  br i1 %36, label %40, label %37

37:                                               ; preds = %29
  %38 = load ptr, ptr %2, align 8, !tbaa !4
  %39 = call i32 @luaL_argerror(ptr noundef %38, i32 noundef 2, ptr noundef @.str.31)
  br label %40

40:                                               ; preds = %37, %29
  %41 = call ptr @__errno_location() #9
  store i32 0, ptr %41, align 4, !tbaa !18
  %42 = call i32 @fflush(ptr noundef null)
  %43 = load ptr, ptr %3, align 8, !tbaa !11
  %44 = load ptr, ptr %4, align 8, !tbaa !11
  %45 = call noalias ptr @popen(ptr noundef %43, ptr noundef %44)
  %46 = load ptr, ptr %5, align 8, !tbaa !13
  %47 = getelementptr inbounds nuw %struct.luaL_Stream, ptr %46, i32 0, i32 0
  store ptr %45, ptr %47, align 8, !tbaa !15
  %48 = load ptr, ptr %5, align 8, !tbaa !13
  %49 = getelementptr inbounds nuw %struct.luaL_Stream, ptr %48, i32 0, i32 1
  store ptr @io_pclose, ptr %49, align 8, !tbaa !17
  %50 = load ptr, ptr %5, align 8, !tbaa !13
  %51 = getelementptr inbounds nuw %struct.luaL_Stream, ptr %50, i32 0, i32 0
  %52 = load ptr, ptr %51, align 8, !tbaa !15
  %53 = icmp eq ptr %52, null
  br i1 %53, label %54, label %58

54:                                               ; preds = %40
  %55 = load ptr, ptr %2, align 8, !tbaa !4
  %56 = load ptr, ptr %3, align 8, !tbaa !11
  %57 = call i32 @luaL_fileresult(ptr noundef %55, i32 noundef 0, ptr noundef %56)
  br label %59

58:                                               ; preds = %40
  br label %59

59:                                               ; preds = %58, %54
  %60 = phi i32 [ %57, %54 ], [ 1, %58 ]
  call void @llvm.lifetime.end.p0(i64 8, ptr %5) #8
  call void @llvm.lifetime.end.p0(i64 8, ptr %4) #8
  call void @llvm.lifetime.end.p0(i64 8, ptr %3) #8
  ret i32 %60
}