; Function Attrs: nounwind uwtable
define internal i32 @io_popen(ptr noundef %0) #0 {
  %2 = tail call ptr @luaL_checklstring(ptr noundef %0, i32 noundef 1, ptr noundef null) #9
  %3 = tail call ptr @luaL_optlstring(ptr noundef %0, i32 noundef 2, ptr noundef nonnull @.str.19, ptr noundef null) #9
  %4 = tail call ptr @lua_newuserdatauv(ptr noundef %0, i64 noundef 16, i32 noundef 0) #9
  %5 = getelementptr inbounds nuw i8, ptr %4, i64 8
  store ptr null, ptr %5, align 8, !tbaa !9
  tail call void @luaL_setmetatable(ptr noundef %0, ptr noundef nonnull @.str.16) #9
  %6 = load i8, ptr %3, align 1, !tbaa !16
  switch i8 %6, label %.critedge [
    i8 114, label %7
    i8 119, label %7
  ]

7:                                                ; preds = %1, %1
  %8 = getelementptr inbounds nuw i8, ptr %3, i64 1
  %9 = load i8, ptr %8, align 1, !tbaa !16
  %10 = icmp eq i8 %9, 0
  br i1 %10, label %12, label %.critedge, !prof !18

.critedge:                                        ; preds = %1, %7
  %11 = tail call i32 @luaL_argerror(ptr noundef %0, i32 noundef 2, ptr noundef nonnull @.str.31) #9
  br label %12

12:                                               ; preds = %.critedge, %7
  %13 = tail call ptr @__errno_location() #10
  store i32 0, ptr %13, align 4, !tbaa !14
  %14 = tail call i32 @fflush(ptr noundef null)
  %15 = tail call noalias ptr @popen(ptr noundef %2, ptr noundef nonnull %3)
  store ptr %15, ptr %4, align 8, !tbaa !11
  store ptr @io_pclose, ptr %5, align 8, !tbaa !9
  %16 = icmp eq ptr %15, null
  br i1 %16, label %17, label %19

17:                                               ; preds = %12
  %18 = tail call i32 @luaL_fileresult(ptr noundef %0, i32 noundef 0, ptr noundef %2) #9
  br label %19

19:                                               ; preds = %12, %17
  %20 = phi i32 [ %18, %17 ], [ 1, %12 ]
  ret i32 %20
}